# SymbolsHelper-Confirmed: 0.6.0 amd64
libtelepathy-logger-qt4.so.1 libtelepathy-logger-qt4-1 #MINVER#
 _ZN3Tpl10LogManager10queryDatesERKN2Tp9SharedPtrINS1_7AccountEEERKN5QGlib10RefPointerINS_6EntityEEENS_13EventTypeMaskE@Base 0.6.0
 _ZN3Tpl10LogManager11queryEventsERKN2Tp9SharedPtrINS1_7AccountEEERKN5QGlib10RefPointerINS_6EntityEEENS_13EventTypeMaskERK5QDate@Base 0.6.0
 _ZN3Tpl10LogManager12clearHistoryEv@Base 0.6.0
 _ZN3Tpl10LogManager13queryEntitiesERKN2Tp9SharedPtrINS1_7AccountEEE@Base 0.6.0
 _ZN3Tpl10LogManager18clearEntityHistoryERKN2Tp9SharedPtrINS1_7AccountEEERKN5QGlib10RefPointerINS_6EntityEEE@Base 0.6.0
 _ZN3Tpl10LogManager19clearAccountHistoryERKN2Tp9SharedPtrINS1_7AccountEEE@Base 0.6.0
 (optional=templinst)_ZN3Tpl10LogManager19queryFilteredEventsERKN2Tp9SharedPtrINS1_7AccountEEERKN5QGlib10RefPointerINS_6EntityEEENS_13EventTypeMaskEjPFbRKNS8_INS_5EventEEEPvESI_@Base 0.6.0
 _ZN3Tpl10LogManager20setAccountManagerPtrERKN2Tp9SharedPtrINS1_14AccountManagerEEE@Base 0.6.0
 _ZN3Tpl10LogManager6searchERK7QStringNS_13EventTypeMaskE@Base 0.6.0
 _ZN3Tpl10LogManager8instanceEv@Base 0.6.0
 _ZN3Tpl10LogManagerD0Ev@Base 0.6.0
 _ZN3Tpl10LogManagerD1Ev@Base 0.6.0
 _ZN3Tpl12PendingDates11qt_metacallEN11QMetaObject4CallEiPPv@Base 0.6.0
 _ZN3Tpl12PendingDates11qt_metacastEPKc@Base 0.6.0
 _ZN3Tpl12PendingDates16staticMetaObjectE@Base 0.6.0
 _ZN3Tpl12PendingDates5startEv@Base 0.6.0
 _ZN3Tpl12PendingDatesC1ERKN5QGlib10RefPointerINS_10LogManagerEEERKN2Tp9SharedPtrINS7_7AccountEEERKNS2_INS_6EntityEEENS_13EventTypeMaskE@Base 0.6.0
 _ZN3Tpl12PendingDatesC2ERKN5QGlib10RefPointerINS_10LogManagerEEERKN2Tp9SharedPtrINS7_7AccountEEERKNS2_INS_6EntityEEENS_13EventTypeMaskE@Base 0.6.0
 _ZN3Tpl12PendingDatesD0Ev@Base 0.6.0
 _ZN3Tpl12PendingDatesD1Ev@Base 0.6.0
 _ZN3Tpl12PendingDatesD2Ev@Base 0.6.0
 _ZN3Tpl13PendingEvents11qt_metacallEN11QMetaObject4CallEiPPv@Base 0.6.0
 _ZN3Tpl13PendingEvents11qt_metacastEPKc@Base 0.6.0
 _ZN3Tpl13PendingEvents16staticMetaObjectE@Base 0.6.0
 _ZN3Tpl13PendingEvents5startEv@Base 0.6.0
 _ZN3Tpl13PendingEventsC1ERKN5QGlib10RefPointerINS_10LogManagerEEERKN2Tp9SharedPtrINS7_7AccountEEERKNS2_INS_6EntityEEENS_13EventTypeMaskERK5QDate@Base 0.6.0
 (optional=templinst)_ZN3Tpl13PendingEventsC1ERKN5QGlib10RefPointerINS_10LogManagerEEERKN2Tp9SharedPtrINS7_7AccountEEERKNS2_INS_6EntityEEENS_13EventTypeMaskEjPFbRKNS2_INS_5EventEEEPvESM_@Base 0.6.0
 _ZN3Tpl13PendingEventsC2ERKN5QGlib10RefPointerINS_10LogManagerEEERKN2Tp9SharedPtrINS7_7AccountEEERKNS2_INS_6EntityEEENS_13EventTypeMaskERK5QDate@Base 0.6.0
 (optional=templinst)_ZN3Tpl13PendingEventsC2ERKN5QGlib10RefPointerINS_10LogManagerEEERKN2Tp9SharedPtrINS7_7AccountEEERKNS2_INS_6EntityEEENS_13EventTypeMaskEjPFbRKNS2_INS_5EventEEEPvESM_@Base 0.6.0
 _ZN3Tpl13PendingEventsD0Ev@Base 0.6.0
 _ZN3Tpl13PendingEventsD1Ev@Base 0.6.0
 _ZN3Tpl13PendingEventsD2Ev@Base 0.6.0
 _ZN3Tpl13PendingSearch11qt_metacallEN11QMetaObject4CallEiPPv@Base 0.6.0
 _ZN3Tpl13PendingSearch11qt_metacastEPKc@Base 0.6.0
 _ZN3Tpl13PendingSearch16staticMetaObjectE@Base 0.6.0
 _ZN3Tpl13PendingSearch5startEv@Base 0.6.0
 _ZN3Tpl13PendingSearchC1ERKN5QGlib10RefPointerINS_10LogManagerEEERK7QStringNS_13EventTypeMaskE@Base 0.6.0
 _ZN3Tpl13PendingSearchC2ERKN5QGlib10RefPointerINS_10LogManagerEEERK7QStringNS_13EventTypeMaskE@Base 0.6.0
 _ZN3Tpl13PendingSearchD0Ev@Base 0.6.0
 _ZN3Tpl13PendingSearchD1Ev@Base 0.6.0
 _ZN3Tpl13PendingSearchD2Ev@Base 0.6.0
 _ZN3Tpl15LoggerInterface10invalidateEPN2Tp9DBusProxyERK7QStringS6_@Base 0.6.0
 _ZN3Tpl15LoggerInterface11qt_metacallEN11QMetaObject4CallEiPPv@Base 0.6.0
 _ZN3Tpl15LoggerInterface11qt_metacastEPKc@Base 0.6.0
 _ZN3Tpl15LoggerInterface16staticMetaObjectE@Base 0.6.0
 _ZN3Tpl15LoggerInterfaceC1EPN2Tp9DBusProxyE@Base 0.6.0
 _ZN3Tpl15LoggerInterfaceC1ERK15QDBusConnectionRK7QStringS6_P7QObject@Base 0.6.0
 _ZN3Tpl15LoggerInterfaceC1ERK7QStringS3_P7QObject@Base 0.6.0
 _ZN3Tpl15LoggerInterfaceC1ERKN2Tp17AbstractInterfaceE@Base 0.6.0
 _ZN3Tpl15LoggerInterfaceC1ERKN2Tp17AbstractInterfaceEP7QObject@Base 0.6.0
 _ZN3Tpl15LoggerInterfaceC2EPN2Tp9DBusProxyE@Base 0.6.0
 _ZN3Tpl15LoggerInterfaceC2ERK15QDBusConnectionRK7QStringS6_P7QObject@Base 0.6.0
 _ZN3Tpl15LoggerInterfaceC2ERK7QStringS3_P7QObject@Base 0.6.0
 _ZN3Tpl15LoggerInterfaceC2ERKN2Tp17AbstractInterfaceE@Base 0.6.0
 _ZN3Tpl15LoggerInterfaceC2ERKN2Tp17AbstractInterfaceEP7QObject@Base 0.6.0
 _ZN3Tpl15LoggerInterfaceD0Ev@Base 0.6.0
 _ZN3Tpl15LoggerInterfaceD1Ev@Base 0.6.0
 _ZN3Tpl15LoggerInterfaceD2Ev@Base 0.6.0
 _ZN3Tpl15PendingEntities11qt_metacallEN11QMetaObject4CallEiPPv@Base 0.6.0
 _ZN3Tpl15PendingEntities11qt_metacastEPKc@Base 0.6.0
 _ZN3Tpl15PendingEntities16staticMetaObjectE@Base 0.6.0
 _ZN3Tpl15PendingEntities5startEv@Base 0.6.0
 _ZN3Tpl15PendingEntitiesC1ERKN5QGlib10RefPointerINS_10LogManagerEEERKN2Tp9SharedPtrINS7_7AccountEEE@Base 0.6.0
 _ZN3Tpl15PendingEntitiesC2ERKN5QGlib10RefPointerINS_10LogManagerEEERKN2Tp9SharedPtrINS7_7AccountEEE@Base 0.6.0
 _ZN3Tpl15PendingEntitiesD0Ev@Base 0.6.0
 _ZN3Tpl15PendingEntitiesD1Ev@Base 0.6.0
 _ZN3Tpl15PendingEntitiesD2Ev@Base 0.6.0
 _ZN3Tpl16PendingOperation11qt_metacallEN11QMetaObject4CallEiPPv@Base 0.6.0
 _ZN3Tpl16PendingOperation11qt_metacastEPKc@Base 0.6.0
 _ZN3Tpl16PendingOperation11setFinishedEv@Base 0.6.0
 _ZN3Tpl16PendingOperation12emitFinishedEv@Base 0.6.0
 _ZN3Tpl16PendingOperation16staticMetaObjectE@Base 0.6.0
 _ZN3Tpl16PendingOperation20setFinishedWithErrorERK7QStringS3_@Base 0.6.0
 _ZN3Tpl16PendingOperation5startEv@Base 0.6.0
 _ZN3Tpl16PendingOperation8finishedEPS0_@Base 0.6.0
 _ZN3Tpl16PendingOperationC1Ev@Base 0.6.0
 _ZN3Tpl16PendingOperationC2Ev@Base 0.6.0
 _ZN3Tpl16PendingOperationD0Ev@Base 0.6.0
 _ZN3Tpl16PendingOperationD1Ev@Base 0.6.0
 _ZN3Tpl16PendingOperationD2Ev@Base 0.6.0
 _ZN3Tpl4initEv@Base 0.6.0
 _ZN3Tpl5EventD0Ev@Base 0.6.0
 _ZN3Tpl5EventD1Ev@Base 0.6.0
 _ZN3Tpl6Entity6createEPKc@Base 0.6.0
 _ZN3Tpl6Entity6createEPKcNS_10EntityTypeES2_S2_@Base 0.6.0
 _ZN3Tpl6Entity6createERKN2Tp9SharedPtrINS1_7ContactEEENS_10EntityTypeE@Base 0.6.0
 _ZN3Tpl6EntityD0Ev@Base 0.6.0
 _ZN3Tpl6EntityD1Ev@Base 0.6.0
 _ZN3Tpl9CallEventD0Ev@Base 0.6.0
 _ZN3Tpl9CallEventD1Ev@Base 0.6.0
 _ZN3Tpl9SearchHitC1ERKN2Tp9SharedPtrINS1_7AccountEEERKN5QGlib10RefPointerINS_6EntityEEERK5QDate@Base 0.6.0
 _ZN3Tpl9SearchHitC1ERKS0_@Base 0.6.0
 _ZN3Tpl9SearchHitC2ERKN2Tp9SharedPtrINS1_7AccountEEERKN5QGlib10RefPointerINS_6EntityEEERK5QDate@Base 0.6.0
 _ZN3Tpl9SearchHitC2ERKS0_@Base 0.6.0
 _ZN3Tpl9SearchHitD1Ev@Base 0.6.0
 _ZN3Tpl9SearchHitD2Ev@Base 0.6.0
 _ZN3Tpl9SearchHitaSERKS0_@Base 0.6.0
 _ZN3Tpl9TextEventD0Ev@Base 0.6.0
 _ZN3Tpl9TextEventD1Ev@Base 0.6.0
 _ZN5QGlib11GetTypeImplIN3Tpl10LogManagerEEcvNS_4TypeEEv@Base 0.6.0
 _ZN5QGlib11GetTypeImplIN3Tpl5EventEEcvNS_4TypeEEv@Base 0.6.0
 _ZN5QGlib11GetTypeImplIN3Tpl6EntityEEcvNS_4TypeEEv@Base 0.6.0
 _ZN5QGlib11GetTypeImplIN3Tpl9CallEventEEcvNS_4TypeEEv@Base 0.6.0
 _ZN5QGlib11GetTypeImplIN3Tpl9TextEventEEcvNS_4TypeEEv@Base 0.6.0
 _ZNK3Tpl10LogManager17accountManagerPtrEv@Base 0.6.0
 _ZNK3Tpl10LogManager6existsERKN2Tp9SharedPtrINS1_7AccountEEERKN5QGlib10RefPointerINS_6EntityEEENS_13EventTypeMaskE@Base 0.6.0
 _ZNK3Tpl12PendingDates10metaObjectEv@Base 0.6.0
 _ZNK3Tpl12PendingDates5datesEv@Base 0.6.0
 _ZNK3Tpl12PendingDates6entityEv@Base 0.6.0
 _ZNK3Tpl12PendingDates7accountEv@Base 0.6.0
 _ZNK3Tpl13PendingEvents10metaObjectEv@Base 0.6.0
 _ZNK3Tpl13PendingEvents6eventsEv@Base 0.6.0
 _ZNK3Tpl13PendingSearch10metaObjectEv@Base 0.6.0
 _ZNK3Tpl13PendingSearch4hitsEv@Base 0.6.0
 _ZNK3Tpl15LoggerInterface10metaObjectEv@Base 0.6.0
 _ZNK3Tpl15PendingEntities10metaObjectEv@Base 0.6.0
 _ZNK3Tpl15PendingEntities7accountEv@Base 0.6.0
 _ZNK3Tpl15PendingEntities8entitiesEv@Base 0.6.0
 _ZNK3Tpl16PendingOperation10isFinishedEv@Base 0.6.0
 _ZNK3Tpl16PendingOperation10metaObjectEv@Base 0.6.0
 _ZNK3Tpl16PendingOperation12errorMessageEv@Base 0.6.0
 _ZNK3Tpl16PendingOperation7isErrorEv@Base 0.6.0
 _ZNK3Tpl16PendingOperation7isValidEv@Base 0.6.0
 _ZNK3Tpl16PendingOperation9errorNameEv@Base 0.6.0
 _ZNK3Tpl5Event11accountPathEv@Base 0.6.0
 _ZNK3Tpl5Event6senderEv@Base 0.6.0
 _ZNK3Tpl5Event7accountEv@Base 0.6.0
 _ZNK3Tpl5Event7equalToERKN5QGlib10RefPointerIS0_EE@Base 0.6.0
 _ZNK3Tpl5Event8receiverEv@Base 0.6.0
 _ZNK3Tpl5Event9timestampEv@Base 0.6.0
 _ZNK3Tpl6Entity10entityTypeEv@Base 0.6.0
 _ZNK3Tpl6Entity10identifierEv@Base 0.6.0
 _ZNK3Tpl6Entity11avatarTokenEv@Base 0.6.0
 _ZNK3Tpl6Entity5aliasEv@Base 0.6.0
 _ZNK3Tpl9CallEvent17detailedEndReasonEv@Base 0.6.0
 _ZNK3Tpl9CallEvent8durationEv@Base 0.6.0
 _ZNK3Tpl9CallEvent8endActorEv@Base 0.6.0
 _ZNK3Tpl9CallEvent9endReasonEv@Base 0.6.0
 _ZNK3Tpl9SearchHit4dateEv@Base 0.6.0
 _ZNK3Tpl9SearchHit6targetEv@Base 0.6.0
 _ZNK3Tpl9SearchHit7accountEv@Base 0.6.0
 _ZNK3Tpl9TextEvent11messageTypeEv@Base 0.6.0
 _ZNK3Tpl9TextEvent12messageTokenEv@Base 0.6.0
 _ZNK3Tpl9TextEvent13editTimestampEv@Base 0.6.0
 _ZNK3Tpl9TextEvent7messageEv@Base 0.6.0
 _ZTIN3Tpl10LogManagerE@Base 0.6.0
 _ZTIN3Tpl12PendingDatesE@Base 0.6.0
 _ZTIN3Tpl13PendingEventsE@Base 0.6.0
 _ZTIN3Tpl13PendingSearchE@Base 0.6.0
 _ZTIN3Tpl15LoggerInterfaceE@Base 0.6.0
 _ZTIN3Tpl15PendingEntitiesE@Base 0.6.0
 _ZTIN3Tpl16PendingOperationE@Base 0.6.0
 _ZTIN3Tpl5EventE@Base 0.6.0
 _ZTIN3Tpl6EntityE@Base 0.6.0
 _ZTIN3Tpl9CallEventE@Base 0.6.0
 _ZTIN3Tpl9TextEventE@Base 0.6.0
 _ZTSN3Tpl10LogManagerE@Base 0.6.0
 _ZTSN3Tpl12PendingDatesE@Base 0.6.0
 _ZTSN3Tpl13PendingEventsE@Base 0.6.0
 _ZTSN3Tpl13PendingSearchE@Base 0.6.0
 _ZTSN3Tpl15LoggerInterfaceE@Base 0.6.0
 _ZTSN3Tpl15PendingEntitiesE@Base 0.6.0
 _ZTSN3Tpl16PendingOperationE@Base 0.6.0
 _ZTSN3Tpl5EventE@Base 0.6.0
 _ZTSN3Tpl6EntityE@Base 0.6.0
 _ZTSN3Tpl9CallEventE@Base 0.6.0
 _ZTSN3Tpl9TextEventE@Base 0.6.0
 _ZTTN3Tpl10LogManagerE@Base 0.6.0
 _ZTTN3Tpl5EventE@Base 0.6.0
 _ZTTN3Tpl6EntityE@Base 0.6.0
 _ZTTN3Tpl9CallEventE@Base 0.6.0
 _ZTTN3Tpl9TextEventE@Base 0.6.0
 _ZTVN3Tpl10LogManagerE@Base 0.6.0
 _ZTVN3Tpl12PendingDatesE@Base 0.6.0
 _ZTVN3Tpl13PendingEventsE@Base 0.6.0
 _ZTVN3Tpl13PendingSearchE@Base 0.6.0
 _ZTVN3Tpl15LoggerInterfaceE@Base 0.6.0
 _ZTVN3Tpl15PendingEntitiesE@Base 0.6.0
 _ZTVN3Tpl16PendingOperationE@Base 0.6.0
 _ZTVN3Tpl5EventE@Base 0.6.0
 _ZTVN3Tpl6EntityE@Base 0.6.0
 _ZTVN3Tpl9CallEventE@Base 0.6.0
 _ZTVN3Tpl9TextEventE@Base 0.6.0
 (c++)"virtual thunk to Tpl::CallEvent::~CallEvent()@Base" 0.6.0
 (c++)"virtual thunk to Tpl::Entity::~Entity()@Base" 0.6.0
 (c++)"virtual thunk to Tpl::Event::~Event()@Base" 0.6.0
 (c++)"virtual thunk to Tpl::LogManager::~LogManager()@Base" 0.6.0
 (c++)"virtual thunk to Tpl::TextEvent::~TextEvent()@Base" 0.6.0
